; Function Attrs: mustprogress nounwind uwtable
define hidden void @_ZN5boost3log11v2_mt_posix3aux11this_thread9anonymous7deleterEPv(ptr noundef %0) #5 {
  %2 = icmp eq ptr %0, null
  br i1 %2, label %4, label %3

3:                                                ; preds = %1
  tail call void @_ZdlPvm(ptr noundef nonnull %0, i64 noundef 8) #16
  br label %4

4:                                                ; preds = %3, %1
  ret void
}